target datalayout = "e-m:e-p270:32:32-p271:32:32-p272:64:64-i64:64-i128:128-f80:128-n8:16:32:64-S128"
target triple = "x86_64-unknown-linux-gnu"

@.str.1 = private unnamed_addr constant [23 x i8] c"../qemu/block/mirror.c\00", align 1
@.str.66 = private unnamed_addr constant [9 x i8] c"ret == 0\00", align 1
@__PRETTY_FUNCTION__.mirror_abort = private unnamed_addr constant [25 x i8] c"void mirror_abort(Job *)\00", align 1

; Function Attrs: nounwind sspstrong uwtable
define internal void @mirror_abort(ptr noundef %job) #0 {
entry:
  %job.addr = alloca ptr, align 8
  %ret = alloca i32, align 4
  store ptr %job, ptr %job.addr, align 8
  %0 = load ptr, ptr %job.addr, align 8
  %call = call i32 @mirror_exit_common(ptr noundef %0)
  store i32 %call, ptr %ret, align 4
  %1 = load i32, ptr %ret, align 4
  %cmp = icmp eq i32 %1, 0
  br i1 %cmp, label %if.then, label %if.else

if.then:                                          ; preds = %entry
  br label %if.end

if.else:                                          ; preds = %entry
  call void @__assert_fail(ptr noundef @.str.66, ptr noundef @.str.1, i32 noundef 827, ptr noundef @__PRETTY_FUNCTION__.mirror_abort) #9
  unreachable

if.end:                                           ; preds = %if.then
  ret void
}