; Function Attrs: nounwind sspstrong uwtable
define internal void @mirror_abort(ptr noundef %job) #0 {
entry:
  %call = tail call fastcc i32 @mirror_exit_common(ptr noundef %job)
  %cmp = icmp eq i32 %call, 0
  br i1 %cmp, label %if.end, label %if.else

if.else:                                          ; preds = %entry
  tail call void @__assert_fail(ptr noundef nonnull @.str.66, ptr noundef nonnull @.str.1, i32 noundef 827, ptr noundef nonnull @__PRETTY_FUNCTION__.mirror_abort) #13
  unreachable

if.end:                                           ; preds = %entry
  ret void
}